target datalayout = "e-m:e-p270:32:32-p271:32:32-p272:64:64-i64:64-i128:128-f80:128-n8:16:32:64-S128"
target triple = "x86_64-pc-linux-gnu"

%struct.bf_context_t = type { ptr, ptr, %struct.BFConstCache, %struct.BFConstCache, ptr }
%struct.BFConstCache = type { %struct.bf_t, i64 }
%struct.bf_t = type { ptr, i32, i64, i64, ptr }
%struct.BFNTTState = type { ptr, [5 x i64], [5 x [2 x [52 x i64]]], [5 x [2 x [52 x i64]]], [5 x [2 x [20 x ptr]]], [5 x [52 x [2 x i64]]], [10 x i64] }

; Function Attrs: inlinehint nounwind uwtable
define internal ptr @bf_realloc(ptr noundef %0, ptr noundef %1, i64 noundef %2) #3 {
  %4 = alloca ptr, align 8
  %5 = alloca ptr, align 8
  %6 = alloca i64, align 8
  store ptr %0, ptr %4, align 8, !tbaa !7
  store ptr %1, ptr %5, align 8, !tbaa !12
  store i64 %2, ptr %6, align 8, !tbaa !27
  %7 = load ptr, ptr %4, align 8, !tbaa !7
  %8 = getelementptr inbounds nuw %struct.bf_context_t, ptr %7, i32 0, i32 1
  %9 = load ptr, ptr %8, align 8, !tbaa !13
  %10 = load ptr, ptr %4, align 8, !tbaa !7
  %11 = getelementptr inbounds nuw %struct.bf_context_t, ptr %10, i32 0, i32 0
  %12 = load ptr, ptr %11, align 8, !tbaa !21
  %13 = load ptr, ptr %5, align 8, !tbaa !12
  %14 = load i64, ptr %6, align 8, !tbaa !27
  %15 = call ptr %9(ptr noundef %12, ptr noundef %13, i64 noundef %14)
  ret ptr %15
}

; Function Attrs: inlinehint nounwind uwtable
define internal void @bf_delete(ptr noundef %0) #3 {
  %2 = alloca ptr, align 8
  %3 = alloca ptr, align 8
  store ptr %0, ptr %2, align 8, !tbaa !12
  call void @llvm.lifetime.start.p0(i64 8, ptr %3) #10
  %4 = load ptr, ptr %2, align 8, !tbaa !12
  %5 = getelementptr inbounds nuw %struct.bf_t, ptr %4, i32 0, i32 0
  %6 = load ptr, ptr %5, align 8, !tbaa !22
  store ptr %6, ptr %3, align 8, !tbaa !7
  %7 = load ptr, ptr %3, align 8, !tbaa !7
  %8 = icmp ne ptr %7, null
  br i1 %8, label %9, label %20

9:                                                ; preds = %1
  %10 = load ptr, ptr %2, align 8, !tbaa !12
  %11 = getelementptr inbounds nuw %struct.bf_t, ptr %10, i32 0, i32 4
  %12 = load ptr, ptr %11, align 8, !tbaa !26
  %13 = icmp ne ptr %12, null
  br i1 %13, label %14, label %20

14:                                               ; preds = %9
  %15 = load ptr, ptr %3, align 8, !tbaa !7
  %16 = load ptr, ptr %2, align 8, !tbaa !12
  %17 = getelementptr inbounds nuw %struct.bf_t, ptr %16, i32 0, i32 4
  %18 = load ptr, ptr %17, align 8, !tbaa !26
  %19 = call ptr @bf_realloc(ptr noundef %15, ptr noundef %18, i64 noundef 0)
  br label %20

20:                                               ; preds = %14, %9, %1
  call void @llvm.lifetime.end.p0(i64 8, ptr %3) #10
  ret void
}

; Function Attrs: inlinehint nounwind uwtable
define internal void @bf_free(ptr noundef %0, ptr noundef %1) #3 {
  %3 = alloca ptr, align 8
  %4 = alloca ptr, align 8
  store ptr %0, ptr %3, align 8, !tbaa !7
  store ptr %1, ptr %4, align 8, !tbaa !12
  %5 = load ptr, ptr %4, align 8, !tbaa !12
  %6 = icmp ne ptr %5, null
  br i1 %6, label %7, label %11

7:                                                ; preds = %2
  %8 = load ptr, ptr %3, align 8, !tbaa !7
  %9 = load ptr, ptr %4, align 8, !tbaa !12
  %10 = call ptr @bf_realloc(ptr noundef %8, ptr noundef %9, i64 noundef 0)
  br label %11

11:                                               ; preds = %7, %2
  ret void
}

; Function Attrs: nounwind uwtable
define internal void @ntt_free(ptr noundef %0, ptr noundef %1) #0 {
  %3 = alloca ptr, align 8
  %4 = alloca ptr, align 8
  store ptr %0, ptr %3, align 8, !tbaa !50
  store ptr %1, ptr %4, align 8, !tbaa !12
  %5 = load ptr, ptr %3, align 8, !tbaa !50
  %6 = getelementptr inbounds nuw %struct.BFNTTState, ptr %5, i32 0, i32 0
  %7 = load ptr, ptr %6, align 8, !tbaa !168
  %8 = load ptr, ptr %4, align 8, !tbaa !12
  call void @bf_free(ptr noundef %7, ptr noundef %8)
  ret void
}

; Function Attrs: nounwind uwtable
define internal void @bf_const_free(ptr noundef %0) #0 {
  %2 = alloca ptr, align 8
  store ptr %0, ptr %2, align 8, !tbaa !12
  %3 = load ptr, ptr %2, align 8, !tbaa !12
  %4 = getelementptr inbounds nuw %struct.BFConstCache, ptr %3, i32 0, i32 0
  call void @bf_delete(ptr noundef %4)
  %5 = load ptr, ptr %2, align 8, !tbaa !12
  call void @llvm.memset.p0.i64(ptr align 8 %5, i8 0, i64 48, i1 false)
  ret void
}

; Function Attrs: nounwind uwtable
define internal void @fft_clear_cache(ptr noundef %0) #0 {
  %2 = alloca ptr, align 8
  %3 = alloca i32, align 4
  %4 = alloca i32, align 4
  %5 = alloca i32, align 4
  %6 = alloca ptr, align 8
  store ptr %0, ptr %2, align 8, !tbaa !7
  call void @llvm.lifetime.start.p0(i64 4, ptr %3) #10
  call void @llvm.lifetime.start.p0(i64 4, ptr %4) #10
  call void @llvm.lifetime.start.p0(i64 4, ptr %5) #10
  call void @llvm.lifetime.start.p0(i64 8, ptr %6) #10
  %7 = load ptr, ptr %2, align 8, !tbaa !7
  %8 = getelementptr inbounds nuw %struct.bf_context_t, ptr %7, i32 0, i32 4
  %9 = load ptr, ptr %8, align 8, !tbaa !49
  store ptr %9, ptr %6, align 8, !tbaa !50
  %10 = load ptr, ptr %6, align 8, !tbaa !50
  %11 = icmp ne ptr %10, null
  br i1 %11, label %12, label %80

12:                                               ; preds = %1
  store i32 0, ptr %3, align 4, !tbaa !29
  br label %13

13:                                               ; preds = %72, %12
  %14 = load i32, ptr %3, align 4, !tbaa !29
  %15 = icmp slt i32 %14, 5
  br i1 %15, label %16, label %75

16:                                               ; preds = %13
  store i32 0, ptr %4, align 4, !tbaa !29
  br label %17

17:                                               ; preds = %68, %16
  %18 = load i32, ptr %4, align 4, !tbaa !29
  %19 = icmp slt i32 %18, 2
  br i1 %19, label %20, label %71

20:                                               ; preds = %17
  store i32 0, ptr %5, align 4, !tbaa !29
  br label %21

21:                                               ; preds = %64, %20
  %22 = load i32, ptr %5, align 4, !tbaa !29
  %23 = icmp slt i32 %22, 20
  br i1 %23, label %24, label %67

24:                                               ; preds = %21
  %25 = load ptr, ptr %6, align 8, !tbaa !50
  %26 = getelementptr inbounds nuw %struct.BFNTTState, ptr %25, i32 0, i32 4
  %27 = load i32, ptr %3, align 4, !tbaa !29
  %28 = sext i32 %27 to i64
  %29 = getelementptr inbounds [5 x [2 x [20 x ptr]]], ptr %26, i64 0, i64 %28
  %30 = load i32, ptr %4, align 4, !tbaa !29
  %31 = sext i32 %30 to i64
  %32 = getelementptr inbounds [2 x [20 x ptr]], ptr %29, i64 0, i64 %31
  %33 = load i32, ptr %5, align 4, !tbaa !29
  %34 = sext i32 %33 to i64
  %35 = getelementptr inbounds [20 x ptr], ptr %32, i64 0, i64 %34
  %36 = load ptr, ptr %35, align 8, !tbaa !28
  %37 = icmp ne ptr %36, null
  br i1 %37, label %38, label %63

38:                                               ; preds = %24
  %39 = load ptr, ptr %6, align 8, !tbaa !50
  %40 = load ptr, ptr %6, align 8, !tbaa !50
  %41 = getelementptr inbounds nuw %struct.BFNTTState, ptr %40, i32 0, i32 4
  %42 = load i32, ptr %3, align 4, !tbaa !29
  %43 = sext i32 %42 to i64
  %44 = getelementptr inbounds [5 x [2 x [20 x ptr]]], ptr %41, i64 0, i64 %43
  %45 = load i32, ptr %4, align 4, !tbaa !29
  %46 = sext i32 %45 to i64
  %47 = getelementptr inbounds [2 x [20 x ptr]], ptr %44, i64 0, i64 %46
  %48 = load i32, ptr %5, align 4, !tbaa !29
  %49 = sext i32 %48 to i64
  %50 = getelementptr inbounds [20 x ptr], ptr %47, i64 0, i64 %49
  %51 = load ptr, ptr %50, align 8, !tbaa !28
  call void @ntt_free(ptr noundef %39, ptr noundef %51)
  %52 = load ptr, ptr %6, align 8, !tbaa !50
  %53 = getelementptr inbounds nuw %struct.BFNTTState, ptr %52, i32 0, i32 4
  %54 = load i32, ptr %3, align 4, !tbaa !29
  %55 = sext i32 %54 to i64
  %56 = getelementptr inbounds [5 x [2 x [20 x ptr]]], ptr %53, i64 0, i64 %55
  %57 = load i32, ptr %4, align 4, !tbaa !29
  %58 = sext i32 %57 to i64
  %59 = getelementptr inbounds [2 x [20 x ptr]], ptr %56, i64 0, i64 %58
  %60 = load i32, ptr %5, align 4, !tbaa !29
  %61 = sext i32 %60 to i64
  %62 = getelementptr inbounds [20 x ptr], ptr %59, i64 0, i64 %61
  store ptr null, ptr %62, align 8, !tbaa !28
  br label %63

63:                                               ; preds = %38, %24
  br label %64

64:                                               ; preds = %63
  %65 = load i32, ptr %5, align 4, !tbaa !29
  %66 = add i32 %65, 1
  store i32 %66, ptr %5, align 4, !tbaa !29
  br label %21, !llvm.loop !95

67:                                               ; preds = %21
  br label %68

68:                                               ; preds = %67
  %69 = load i32, ptr %4, align 4, !tbaa !29
  %70 = add i32 %69, 1
  store i32 %70, ptr %4, align 4, !tbaa !29
  br label %17, !llvm.loop !96

71:                                               ; preds = %17
  br label %72

72:                                               ; preds = %71
  %73 = load i32, ptr %3, align 4, !tbaa !29
  %74 = add i32 %73, 1
  store i32 %74, ptr %3, align 4, !tbaa !29
  br label %13, !llvm.loop !97

75:                                               ; preds = %13
  %76 = load ptr, ptr %2, align 8, !tbaa !7
  %77 = load ptr, ptr %6, align 8, !tbaa !50
  call void @bf_free(ptr noundef %76, ptr noundef %77)
  %78 = load ptr, ptr %2, align 8, !tbaa !7
  %79 = getelementptr inbounds nuw %struct.bf_context_t, ptr %78, i32 0, i32 4
  store ptr null, ptr %79, align 8, !tbaa !49
  br label %80

80:                                               ; preds = %75, %1
  call void @llvm.lifetime.end.p0(i64 8, ptr %6) #10
  call void @llvm.lifetime.end.p0(i64 4, ptr %5) #10
  call void @llvm.lifetime.end.p0(i64 4, ptr %4) #10
  call void @llvm.lifetime.end.p0(i64 4, ptr %3) #10
  ret void
}

; Function Attrs: nounwind uwtable
define dso_local void @bf_clear_cache(ptr noundef %0) #0 {
  %2 = alloca ptr, align 8
  store ptr %0, ptr %2, align 8, !tbaa !7
  %3 = load ptr, ptr %2, align 8, !tbaa !7
  call void @fft_clear_cache(ptr noundef %3)
  %4 = load ptr, ptr %2, align 8, !tbaa !7
  %5 = getelementptr inbounds nuw %struct.bf_context_t, ptr %4, i32 0, i32 2
  call void @bf_const_free(ptr noundef %5)
  %6 = load ptr, ptr %2, align 8, !tbaa !7
  %7 = getelementptr inbounds nuw %struct.bf_context_t, ptr %6, i32 0, i32 3
  call void @bf_const_free(ptr noundef %7)
  ret void
}

; Function Attrs: nounwind uwtable
define dso_local void @bf_context_end(ptr noundef %0) #0 {
  %2 = alloca ptr, align 8
  store ptr %0, ptr %2, align 8, !tbaa !7
  %3 = load ptr, ptr %2, align 8, !tbaa !7
  call void @bf_clear_cache(ptr noundef %3)
  ret void
}